target datalayout = "e-m:e-p270:32:32-p271:32:32-p272:64:64-i64:64-i128:128-f80:128-n8:16:32:64-S128"
target triple = "x86_64-pc-linux-gnu"

%struct.rb_printf_sfile = type { ptr, i64, i16, i16, %struct.rb_printf_sbuf, ptr, ptr }
%struct.rb_printf_sbuf = type { ptr, i64 }
%struct.__suio = type { ptr, i32, i64 }
%struct.__siov = type { ptr, i64 }

; Function Attrs: alwaysinline nounwind
define internal ptr @memcpy.inline(ptr noalias nonnull %0, ptr noalias nonnull %1, i64 %2) #6 {
  %4 = alloca ptr, align 8
  %5 = alloca ptr, align 8
  %6 = alloca i64, align 8
  store ptr %0, ptr %4, align 8, !tbaa !53
  store ptr %1, ptr %5, align 8, !tbaa !53
  store i64 %2, ptr %6, align 8, !tbaa !14
  %7 = load ptr, ptr %4, align 8, !tbaa !53
  %8 = load ptr, ptr %5, align 8, !tbaa !53
  %9 = load i64, ptr %6, align 8, !tbaa !14
  %10 = load ptr, ptr %4, align 8, !tbaa !53
  %11 = call i64 @llvm.objectsize.i64.p0(ptr %10, i1 false, i1 true, i1 false)
  %12 = call ptr @__memcpy_chk(ptr noundef %7, ptr noundef %8, i64 noundef %9, i64 noundef %11) #26
  ret ptr %12
}

; Function Attrs: inlinehint nounwind sspstrong memory(argmem: readwrite, inaccessiblemem: readwrite) uwtable
define internal nonnull ptr @ruby_nonempty_memcpy(ptr noundef nonnull %0, ptr noundef %1, i64 noundef %2) #7 {
  %4 = alloca ptr, align 8
  %5 = alloca ptr, align 8
  %6 = alloca ptr, align 8
  %7 = alloca i64, align 8
  store ptr %0, ptr %5, align 8, !tbaa !53
  store ptr %1, ptr %6, align 8, !tbaa !53
  store i64 %2, ptr %7, align 8, !tbaa !14
  %8 = load i64, ptr %7, align 8, !tbaa !14
  %9 = icmp ne i64 %8, 0
  br i1 %9, label %10, label %15

10:                                               ; preds = %3
  %11 = load ptr, ptr %5, align 8, !tbaa !53
  %12 = load ptr, ptr %6, align 8, !tbaa !53
  %13 = load i64, ptr %7, align 8, !tbaa !14
  %14 = call ptr @memcpy.inline(ptr noundef %11, ptr noundef %12, i64 noundef %13) #26
  store ptr %14, ptr %4, align 8
  br label %17

15:                                               ; preds = %3
  %16 = load ptr, ptr %5, align 8, !tbaa !53
  store ptr %16, ptr %4, align 8
  br label %17

17:                                               ; preds = %15, %10
  %18 = load ptr, ptr %4, align 8
  ret ptr %18
}

; Function Attrs: nounwind sspstrong uwtable
define internal i32 @BSD__sfvwrite(ptr noundef %0, ptr noundef %1) #0 {
  %3 = alloca i32, align 4
  %4 = alloca ptr, align 8
  %5 = alloca ptr, align 8
  %6 = alloca i64, align 8
  %7 = alloca ptr, align 8
  %8 = alloca ptr, align 8
  %9 = alloca i64, align 8
  %10 = alloca i32, align 4
  store ptr %0, ptr %4, align 8, !tbaa !97
  store ptr %1, ptr %5, align 8, !tbaa !99
  call void @llvm.lifetime.start.p0(i64 8, ptr %6) #26
  call void @llvm.lifetime.start.p0(i64 8, ptr %7) #26
  call void @llvm.lifetime.start.p0(i64 8, ptr %8) #26
  call void @llvm.lifetime.start.p0(i64 8, ptr %9) #26
  %11 = load ptr, ptr %5, align 8, !tbaa !99
  %12 = getelementptr inbounds nuw %struct.__suio, ptr %11, i32 0, i32 2
  %13 = load i64, ptr %12, align 8, !tbaa !101
  store i64 %13, ptr %6, align 8, !tbaa !14
  %14 = icmp eq i64 %13, 0
  br i1 %14, label %15, label %16

15:                                               ; preds = %2
  store i32 0, ptr %3, align 4
  store i32 1, ptr %10, align 4
  br label %109

16:                                               ; preds = %2
  %17 = load ptr, ptr %5, align 8, !tbaa !99
  %18 = getelementptr inbounds nuw %struct.__suio, ptr %17, i32 0, i32 0
  %19 = load ptr, ptr %18, align 8, !tbaa !104
  store ptr %19, ptr %8, align 8, !tbaa !105
  %20 = load ptr, ptr %8, align 8, !tbaa !105
  %21 = getelementptr inbounds nuw %struct.__siov, ptr %20, i32 0, i32 0
  %22 = load ptr, ptr %21, align 8, !tbaa !106
  store ptr %22, ptr %7, align 8, !tbaa !18
  %23 = load ptr, ptr %8, align 8, !tbaa !105
  %24 = getelementptr inbounds nuw %struct.__siov, ptr %23, i32 0, i32 1
  %25 = load i64, ptr %24, align 8, !tbaa !108
  store i64 %25, ptr %6, align 8, !tbaa !14
  %26 = load ptr, ptr %8, align 8, !tbaa !105
  %27 = getelementptr %struct.__siov, ptr %26, i32 1
  store ptr %27, ptr %8, align 8, !tbaa !105
  %28 = load ptr, ptr %4, align 8, !tbaa !97
  %29 = getelementptr inbounds nuw %struct.rb_printf_sfile, ptr %28, i32 0, i32 2
  %30 = load i16, ptr %29, align 8, !tbaa !67
  %31 = sext i16 %30 to i32
  %32 = and i32 %31, 2
  %33 = icmp ne i32 %32, 0
  br i1 %33, label %34, label %35

34:                                               ; preds = %16
  br label %108

35:                                               ; preds = %16
  %36 = load ptr, ptr %4, align 8, !tbaa !97
  %37 = getelementptr inbounds nuw %struct.rb_printf_sfile, ptr %36, i32 0, i32 2
  %38 = load i16, ptr %37, align 8, !tbaa !67
  %39 = sext i16 %38 to i32
  %40 = and i32 %39, 1
  %41 = icmp eq i32 %40, 0
  br i1 %41, label %42, label %106

42:                                               ; preds = %35
  br label %43

43:                                               ; preds = %98, %42
  br label %44

44:                                               ; preds = %47, %43
  %45 = load i64, ptr %6, align 8, !tbaa !14
  %46 = icmp eq i64 %45, 0
  br i1 %46, label %47, label %56

47:                                               ; preds = %44
  %48 = load ptr, ptr %8, align 8, !tbaa !105
  %49 = getelementptr inbounds nuw %struct.__siov, ptr %48, i32 0, i32 0
  %50 = load ptr, ptr %49, align 8, !tbaa !106
  store ptr %50, ptr %7, align 8, !tbaa !18
  %51 = load ptr, ptr %8, align 8, !tbaa !105
  %52 = getelementptr inbounds nuw %struct.__siov, ptr %51, i32 0, i32 1
  %53 = load i64, ptr %52, align 8, !tbaa !108
  store i64 %53, ptr %6, align 8, !tbaa !14
  %54 = load ptr, ptr %8, align 8, !tbaa !105
  %55 = getelementptr %struct.__siov, ptr %54, i32 1
  store ptr %55, ptr %8, align 8, !tbaa !105
  br label %44, !llvm.loop !109

56:                                               ; preds = %44
  %57 = load ptr, ptr %4, align 8, !tbaa !97
  %58 = getelementptr inbounds nuw %struct.rb_printf_sfile, ptr %57, i32 0, i32 1
  %59 = load i64, ptr %58, align 8, !tbaa !73
  store i64 %59, ptr %9, align 8, !tbaa !14
  %60 = load ptr, ptr %4, align 8, !tbaa !97
  %61 = getelementptr inbounds nuw %struct.rb_printf_sfile, ptr %60, i32 0, i32 2
  %62 = load i16, ptr %61, align 8, !tbaa !67
  %63 = sext i16 %62 to i32
  %64 = and i32 %63, 512
  %65 = icmp ne i32 %64, 0
  br i1 %65, label %66, label %90

66:                                               ; preds = %56
  %67 = load i64, ptr %6, align 8, !tbaa !14
  %68 = load i64, ptr %9, align 8, !tbaa !14
  %69 = icmp ult i64 %67, %68
  br i1 %69, label %70, label %72

70:                                               ; preds = %66
  %71 = load i64, ptr %6, align 8, !tbaa !14
  store i64 %71, ptr %9, align 8, !tbaa !14
  br label %72

72:                                               ; preds = %70, %66
  %73 = load ptr, ptr %4, align 8, !tbaa !97
  %74 = getelementptr inbounds nuw %struct.rb_printf_sfile, ptr %73, i32 0, i32 0
  %75 = load ptr, ptr %74, align 8, !tbaa !71
  %76 = load ptr, ptr %7, align 8, !tbaa !18
  %77 = load i64, ptr %9, align 8, !tbaa !14
  %78 = call nonnull ptr @ruby_nonempty_memcpy(ptr noundef %75, ptr noundef %76, i64 noundef %77) #28
  %79 = load i64, ptr %9, align 8, !tbaa !14
  %80 = load ptr, ptr %4, align 8, !tbaa !97
  %81 = getelementptr inbounds nuw %struct.rb_printf_sfile, ptr %80, i32 0, i32 1
  %82 = load i64, ptr %81, align 8, !tbaa !73
  %83 = sub i64 %82, %79
  store i64 %83, ptr %81, align 8, !tbaa !73
  %84 = load i64, ptr %9, align 8, !tbaa !14
  %85 = load ptr, ptr %4, align 8, !tbaa !97
  %86 = getelementptr inbounds nuw %struct.rb_printf_sfile, ptr %85, i32 0, i32 0
  %87 = load ptr, ptr %86, align 8, !tbaa !71
  %88 = getelementptr i8, ptr %87, i64 %84
  store ptr %88, ptr %86, align 8, !tbaa !71
  %89 = load i64, ptr %6, align 8, !tbaa !14
  store i64 %89, ptr %9, align 8, !tbaa !14
  br label %91

90:                                               ; preds = %56
  br label %91

91:                                               ; preds = %90, %72
  %92 = load i64, ptr %9, align 8, !tbaa !14
  %93 = load ptr, ptr %7, align 8, !tbaa !18
  %94 = getelementptr i8, ptr %93, i64 %92
  store ptr %94, ptr %7, align 8, !tbaa !18
  %95 = load i64, ptr %9, align 8, !tbaa !14
  %96 = load i64, ptr %6, align 8, !tbaa !14
  %97 = sub i64 %96, %95
  store i64 %97, ptr %6, align 8, !tbaa !14
  br label %98

98:                                               ; preds = %91
  %99 = load i64, ptr %9, align 8, !tbaa !14
  %100 = load ptr, ptr %5, align 8, !tbaa !99
  %101 = getelementptr inbounds nuw %struct.__suio, ptr %100, i32 0, i32 2
  %102 = load i64, ptr %101, align 8, !tbaa !101
  %103 = sub i64 %102, %99
  store i64 %103, ptr %101, align 8, !tbaa !101
  %104 = icmp ne i64 %103, 0
  br i1 %104, label %43, label %105, !llvm.loop !110

105:                                              ; preds = %98
  br label %107

106:                                              ; preds = %35
  br label %107

107:                                              ; preds = %106, %105
  br label %108

108:                                              ; preds = %107, %34
  store i32 0, ptr %3, align 4
  store i32 1, ptr %10, align 4
  br label %109

109:                                              ; preds = %108, %15
  call void @llvm.lifetime.end.p0(i64 8, ptr %9) #26
  call void @llvm.lifetime.end.p0(i64 8, ptr %8) #26
  call void @llvm.lifetime.end.p0(i64 8, ptr %7) #26
  call void @llvm.lifetime.end.p0(i64 8, ptr %6) #26
  %110 = load i32, ptr %3, align 4
  ret i32 %110
}