; Function Attrs: nofree nounwind sspstrong memory(readwrite, inaccessiblemem: none) uwtable
define internal noundef i32 @BSD__sfvwrite(ptr noundef captures(none) %0, ptr noundef captures(none) %1) #14 {
  %3 = getelementptr inbounds nuw i8, ptr %1, i64 16
  %4 = load i64, ptr %3, align 8, !tbaa !149
  %5 = icmp eq i64 %4, 0
  br i1 %5, label %.loopexit, label %6

6:                                                ; preds = %2
  %7 = getelementptr inbounds nuw i8, ptr %0, i64 16
  %8 = load i16, ptr %7, align 8, !tbaa !114
  %9 = and i16 %8, 3
  %or.cond = icmp eq i16 %9, 0
  br i1 %or.cond, label %.preheader, label %.loopexit

.preheader:                                       ; preds = %6
  %10 = load ptr, ptr %1, align 8, !tbaa !152
  %11 = load ptr, ptr %10, align 8, !tbaa !153
  %12 = getelementptr inbounds nuw i8, ptr %10, i64 8
  %13 = load i64, ptr %12, align 8, !tbaa !155
  %14 = getelementptr i8, ptr %10, i64 16
  %15 = getelementptr inbounds nuw i8, ptr %0, i64 8
  br label %16

16:                                               ; preds = %.preheader, %34
  %17 = phi i64 [ %38, %34 ], [ %4, %.preheader ]
  %.034 = phi i64 [ %37, %34 ], [ %13, %.preheader ]
  %.032 = phi ptr [ %36, %34 ], [ %11, %.preheader ]
  %.030 = phi ptr [ %.131.lcssa, %34 ], [ %14, %.preheader ]
  %18 = icmp eq i64 %.034, 0
  br i1 %18, label %.lr.ph, label %24

.lr.ph:                                           ; preds = %16, %.lr.ph
  %.13140 = phi ptr [ %21, %.lr.ph ], [ %.030, %16 ]
  %19 = getelementptr inbounds nuw i8, ptr %.13140, i64 8
  %20 = load i64, ptr %19, align 8, !tbaa !155
  %21 = getelementptr i8, ptr %.13140, i64 16
  %22 = icmp eq i64 %20, 0
  br i1 %22, label %.lr.ph, label %._crit_edge, !llvm.loop !156

._crit_edge:                                      ; preds = %.lr.ph
  %23 = load ptr, ptr %.13140, align 8, !tbaa !153
  br label %24

24:                                               ; preds = %._crit_edge, %16
  %.135.lcssa = phi i64 [ %20, %._crit_edge ], [ %.034, %16 ]
  %.133.lcssa = phi ptr [ %23, %._crit_edge ], [ %.032, %16 ]
  %.131.lcssa = phi ptr [ %21, %._crit_edge ], [ %.030, %16 ]
  %25 = load i64, ptr %15, align 8, !tbaa !120
  %26 = load i16, ptr %7, align 8, !tbaa !114
  %27 = and i16 %26, 512
  %.not38 = icmp eq i16 %27, 0
  br i1 %.not38, label %34, label %28

28:                                               ; preds = %24
  %spec.select = tail call i64 @llvm.umin.i64(i64 %.135.lcssa, i64 %25)
  %.not.i = icmp eq i64 %25, 0
  %.pre45 = load ptr, ptr %0, align 8, !tbaa !118
  br i1 %.not.i, label %ruby_nonempty_memcpy.exit, label %29

29:                                               ; preds = %28
  tail call void @llvm.memcpy.p0.p0.i64(ptr noundef nonnull align 1 %.pre45, ptr noundef nonnull readonly align 1 %.133.lcssa, i64 noundef range(i64 1, 0) %spec.select, i1 noundef false) #21
  %.pre = load i64, ptr %15, align 8, !tbaa !120
  %.pre44 = load ptr, ptr %0, align 8, !tbaa !118
  %.pre46.pre = load i64, ptr %3, align 8, !tbaa !149
  br label %ruby_nonempty_memcpy.exit

ruby_nonempty_memcpy.exit:                        ; preds = %28, %29
  %.pre46 = phi i64 [ %17, %28 ], [ %.pre46.pre, %29 ]
  %30 = phi ptr [ %.pre45, %28 ], [ %.pre44, %29 ]
  %31 = phi i64 [ 0, %28 ], [ %.pre, %29 ]
  %32 = sub i64 %31, %spec.select
  store i64 %32, ptr %15, align 8, !tbaa !120
  %33 = getelementptr i8, ptr %30, i64 %spec.select
  store ptr %33, ptr %0, align 8, !tbaa !118
  br label %34

34:                                               ; preds = %24, %ruby_nonempty_memcpy.exit
  %35 = phi i64 [ %.pre46, %ruby_nonempty_memcpy.exit ], [ %17, %24 ]
  %.1 = phi i64 [ %.135.lcssa, %ruby_nonempty_memcpy.exit ], [ %25, %24 ]
  %36 = getelementptr i8, ptr %.133.lcssa, i64 %.1
  %37 = sub i64 %.135.lcssa, %.1
  %38 = sub i64 %35, %.1
  store i64 %38, ptr %3, align 8, !tbaa !149
  %.not39 = icmp eq i64 %35, %.1
  br i1 %.not39, label %.loopexit, label %16, !llvm.loop !157

.loopexit:                                        ; preds = %34, %6, %2
  ret i32 0
}